target datalayout = "e-m:e-p270:32:32-p271:32:32-p272:64:64-i64:64-i128:128-f80:128-n8:16:32:64-S128"
target triple = "x86_64-pc-linux-gnu"

%struct.pairingheap_node = type { ptr, ptr, ptr }
%struct.SnapshotData = type { i32, i32, i32, ptr, i32, ptr, i32, i8, i8, i8, i32, i32, ptr, i32, i32, %struct.pairingheap_node, i64 }
%struct.SerializedSnapshotData = type { i32, i32, i32, i32, i8, i8, i32 }

@TopTransactionContext = external global ptr, align 8

; Function Attrs: nounwind uwtable
define dso_local ptr @RestoreSnapshot(ptr noundef %0) #0 {
  %2 = alloca ptr, align 8
  %3 = alloca %struct.SerializedSnapshotData, align 4
  %4 = alloca i64, align 8
  %5 = alloca ptr, align 8
  %6 = alloca ptr, align 8
  store ptr %0, ptr %2, align 8
  call void @llvm.lifetime.start.p0(i64 24, ptr %3) #14
  call void @llvm.lifetime.start.p0(i64 8, ptr %4) #14
  call void @llvm.lifetime.start.p0(i64 8, ptr %5) #14
  call void @llvm.lifetime.start.p0(i64 8, ptr %6) #14
  %7 = load ptr, ptr %2, align 8
  call void @llvm.memcpy.p0.p0.i64(ptr align 4 %3, ptr align 1 %7, i64 24, i1 false)
  %8 = load ptr, ptr %2, align 8
  %9 = getelementptr inbounds nuw i8, ptr %8, i64 24
  store ptr %9, ptr %6, align 8
  %10 = getelementptr inbounds nuw %struct.SerializedSnapshotData, ptr %3, i32 0, i32 2
  %11 = load i32, ptr %10, align 4
  %12 = zext i32 %11 to i64
  %13 = mul i64 %12, 4
  %14 = add i64 104, %13
  %15 = getelementptr inbounds nuw %struct.SerializedSnapshotData, ptr %3, i32 0, i32 3
  %16 = load i32, ptr %15, align 4
  %17 = sext i32 %16 to i64
  %18 = mul i64 %17, 4
  %19 = add i64 %14, %18
  store i64 %19, ptr %4, align 8
  %20 = load ptr, ptr @TopTransactionContext, align 8
  %21 = load i64, ptr %4, align 8
  %22 = call ptr @MemoryContextAlloc(ptr noundef %20, i64 noundef %21)
  store ptr %22, ptr %5, align 8
  %23 = load ptr, ptr %5, align 8
  %24 = getelementptr inbounds nuw %struct.SnapshotData, ptr %23, i32 0, i32 0
  store i32 0, ptr %24, align 8
  %25 = getelementptr inbounds nuw %struct.SerializedSnapshotData, ptr %3, i32 0, i32 0
  %26 = load i32, ptr %25, align 4
  %27 = load ptr, ptr %5, align 8
  %28 = getelementptr inbounds nuw %struct.SnapshotData, ptr %27, i32 0, i32 1
  store i32 %26, ptr %28, align 4
  %29 = getelementptr inbounds nuw %struct.SerializedSnapshotData, ptr %3, i32 0, i32 1
  %30 = load i32, ptr %29, align 4
  %31 = load ptr, ptr %5, align 8
  %32 = getelementptr inbounds nuw %struct.SnapshotData, ptr %31, i32 0, i32 2
  store i32 %30, ptr %32, align 8
  %33 = load ptr, ptr %5, align 8
  %34 = getelementptr inbounds nuw %struct.SnapshotData, ptr %33, i32 0, i32 3
  store ptr null, ptr %34, align 8
  %35 = getelementptr inbounds nuw %struct.SerializedSnapshotData, ptr %3, i32 0, i32 2
  %36 = load i32, ptr %35, align 4
  %37 = load ptr, ptr %5, align 8
  %38 = getelementptr inbounds nuw %struct.SnapshotData, ptr %37, i32 0, i32 4
  store i32 %36, ptr %38, align 8
  %39 = load ptr, ptr %5, align 8
  %40 = getelementptr inbounds nuw %struct.SnapshotData, ptr %39, i32 0, i32 5
  store ptr null, ptr %40, align 8
  %41 = getelementptr inbounds nuw %struct.SerializedSnapshotData, ptr %3, i32 0, i32 3
  %42 = load i32, ptr %41, align 4
  %43 = load ptr, ptr %5, align 8
  %44 = getelementptr inbounds nuw %struct.SnapshotData, ptr %43, i32 0, i32 6
  store i32 %42, ptr %44, align 8
  %45 = getelementptr inbounds nuw %struct.SerializedSnapshotData, ptr %3, i32 0, i32 4
  %46 = load i8, ptr %45, align 4, !range !4, !noundef !5
  %47 = trunc i8 %46 to i1
  %48 = load ptr, ptr %5, align 8
  %49 = getelementptr inbounds nuw %struct.SnapshotData, ptr %48, i32 0, i32 7
  %50 = zext i1 %47 to i8
  store i8 %50, ptr %49, align 4
  %51 = getelementptr inbounds nuw %struct.SerializedSnapshotData, ptr %3, i32 0, i32 5
  %52 = load i8, ptr %51, align 1, !range !4, !noundef !5
  %53 = trunc i8 %52 to i1
  %54 = load ptr, ptr %5, align 8
  %55 = getelementptr inbounds nuw %struct.SnapshotData, ptr %54, i32 0, i32 8
  %56 = zext i1 %53 to i8
  store i8 %56, ptr %55, align 1
  %57 = getelementptr inbounds nuw %struct.SerializedSnapshotData, ptr %3, i32 0, i32 6
  %58 = load i32, ptr %57, align 4
  %59 = load ptr, ptr %5, align 8
  %60 = getelementptr inbounds nuw %struct.SnapshotData, ptr %59, i32 0, i32 10
  store i32 %58, ptr %60, align 8
  %61 = load ptr, ptr %5, align 8
  %62 = getelementptr inbounds nuw %struct.SnapshotData, ptr %61, i32 0, i32 16
  store i64 0, ptr %62, align 8
  %63 = getelementptr inbounds nuw %struct.SerializedSnapshotData, ptr %3, i32 0, i32 2
  %64 = load i32, ptr %63, align 4
  %65 = icmp ugt i32 %64, 0
  br i1 %65, label %66, label %79

66:                                               ; preds = %1
  %67 = load ptr, ptr %5, align 8
  %68 = getelementptr inbounds %struct.SnapshotData, ptr %67, i64 1
  %69 = load ptr, ptr %5, align 8
  %70 = getelementptr inbounds nuw %struct.SnapshotData, ptr %69, i32 0, i32 3
  store ptr %68, ptr %70, align 8
  %71 = load ptr, ptr %5, align 8
  %72 = getelementptr inbounds nuw %struct.SnapshotData, ptr %71, i32 0, i32 3
  %73 = load ptr, ptr %72, align 8
  %74 = load ptr, ptr %6, align 8
  %75 = getelementptr inbounds nuw %struct.SerializedSnapshotData, ptr %3, i32 0, i32 2
  %76 = load i32, ptr %75, align 4
  %77 = zext i32 %76 to i64
  %78 = mul i64 %77, 4
  call void @llvm.memcpy.p0.p0.i64(ptr align 4 %73, ptr align 4 %74, i64 %78, i1 false)
  br label %79

79:                                               ; preds = %66, %1
  %80 = getelementptr inbounds nuw %struct.SerializedSnapshotData, ptr %3, i32 0, i32 3
  %81 = load i32, ptr %80, align 4
  %82 = icmp sgt i32 %81, 0
  br i1 %82, label %83, label %104

83:                                               ; preds = %79
  %84 = load ptr, ptr %5, align 8
  %85 = getelementptr inbounds %struct.SnapshotData, ptr %84, i64 1
  %86 = getelementptr inbounds nuw %struct.SerializedSnapshotData, ptr %3, i32 0, i32 2
  %87 = load i32, ptr %86, align 4
  %88 = zext i32 %87 to i64
  %89 = getelementptr inbounds nuw i32, ptr %85, i64 %88
  %90 = load ptr, ptr %5, align 8
  %91 = getelementptr inbounds nuw %struct.SnapshotData, ptr %90, i32 0, i32 5
  store ptr %89, ptr %91, align 8
  %92 = load ptr, ptr %5, align 8
  %93 = getelementptr inbounds nuw %struct.SnapshotData, ptr %92, i32 0, i32 5
  %94 = load ptr, ptr %93, align 8
  %95 = load ptr, ptr %6, align 8
  %96 = getelementptr inbounds nuw %struct.SerializedSnapshotData, ptr %3, i32 0, i32 2
  %97 = load i32, ptr %96, align 4
  %98 = zext i32 %97 to i64
  %99 = getelementptr inbounds nuw i32, ptr %95, i64 %98
  %100 = getelementptr inbounds nuw %struct.SerializedSnapshotData, ptr %3, i32 0, i32 3
  %101 = load i32, ptr %100, align 4
  %102 = sext i32 %101 to i64
  %103 = mul i64 %102, 4
  call void @llvm.memcpy.p0.p0.i64(ptr align 4 %94, ptr align 4 %99, i64 %103, i1 false)
  br label %104

104:                                              ; preds = %83, %79
  %105 = load ptr, ptr %5, align 8
  %106 = getelementptr inbounds nuw %struct.SnapshotData, ptr %105, i32 0, i32 14
  store i32 0, ptr %106, align 4
  %107 = load ptr, ptr %5, align 8
  %108 = getelementptr inbounds nuw %struct.SnapshotData, ptr %107, i32 0, i32 13
  store i32 0, ptr %108, align 8
  %109 = load ptr, ptr %5, align 8
  %110 = getelementptr inbounds nuw %struct.SnapshotData, ptr %109, i32 0, i32 9
  store i8 1, ptr %110, align 2
  %111 = load ptr, ptr %5, align 8
  call void @llvm.lifetime.end.p0(i64 8, ptr %6) #14
  call void @llvm.lifetime.end.p0(i64 8, ptr %5) #14
  call void @llvm.lifetime.end.p0(i64 8, ptr %4) #14
  call void @llvm.lifetime.end.p0(i64 24, ptr %3) #14
  ret ptr %111
}