; Function Attrs: nounwind uwtable
define dso_local noundef ptr @RestoreSnapshot(ptr noundef readonly captures(none) %0) local_unnamed_addr #0 {
  %.sroa.0.0.copyload = load i32, ptr %0, align 1
  %.sroa.4.0..sroa_idx = getelementptr inbounds nuw i8, ptr %0, i64 4
  %.sroa.4.0.copyload = load i32, ptr %.sroa.4.0..sroa_idx, align 1
  %.sroa.5.0..sroa_idx = getelementptr inbounds nuw i8, ptr %0, i64 8
  %.sroa.5.0.copyload = load i32, ptr %.sroa.5.0..sroa_idx, align 1
  %.sroa.11.0..sroa_idx = getelementptr inbounds nuw i8, ptr %0, i64 12
  %.sroa.11.0.copyload = load i32, ptr %.sroa.11.0..sroa_idx, align 1
  %.sroa.15.0..sroa_idx = getelementptr inbounds nuw i8, ptr %0, i64 16
  %.sroa.15.0.copyload = load i8, ptr %.sroa.15.0..sroa_idx, align 1
  %.sroa.16.0..sroa_idx = getelementptr inbounds nuw i8, ptr %0, i64 17
  %.sroa.16.0.copyload = load i8, ptr %.sroa.16.0..sroa_idx, align 1
  %.sroa.1731.0..sroa_idx = getelementptr inbounds nuw i8, ptr %0, i64 20
  %.sroa.1731.0.copyload = load i32, ptr %.sroa.1731.0..sroa_idx, align 1
  %2 = getelementptr inbounds nuw i8, ptr %0, i64 24
  %3 = zext i32 %.sroa.5.0.copyload to i64
  %4 = shl nuw nsw i64 %3, 2
  %5 = add nuw nsw i64 %4, 104
  %6 = sext i32 %.sroa.11.0.copyload to i64
  %7 = shl nsw i64 %6, 2
  %8 = add nsw i64 %5, %7
  %9 = load ptr, ptr @TopTransactionContext, align 8
  %10 = tail call ptr @MemoryContextAlloc(ptr noundef %9, i64 noundef %8) #18
  store i32 0, ptr %10, align 8
  %11 = getelementptr inbounds nuw i8, ptr %10, i64 4
  store i32 %.sroa.0.0.copyload, ptr %11, align 4
  %12 = getelementptr inbounds nuw i8, ptr %10, i64 8
  store i32 %.sroa.4.0.copyload, ptr %12, align 8
  %13 = getelementptr inbounds nuw i8, ptr %10, i64 16
  store ptr null, ptr %13, align 8
  %14 = getelementptr inbounds nuw i8, ptr %10, i64 24
  store i32 %.sroa.5.0.copyload, ptr %14, align 8
  %15 = getelementptr inbounds nuw i8, ptr %10, i64 32
  store ptr null, ptr %15, align 8
  %16 = getelementptr inbounds nuw i8, ptr %10, i64 40
  store i32 %.sroa.11.0.copyload, ptr %16, align 8
  %17 = getelementptr inbounds nuw i8, ptr %10, i64 44
  %18 = and i8 %.sroa.15.0.copyload, 1
  store i8 %18, ptr %17, align 4
  %19 = getelementptr inbounds nuw i8, ptr %10, i64 45
  %20 = and i8 %.sroa.16.0.copyload, 1
  store i8 %20, ptr %19, align 1
  %21 = getelementptr inbounds nuw i8, ptr %10, i64 48
  store i32 %.sroa.1731.0.copyload, ptr %21, align 8
  %22 = getelementptr inbounds nuw i8, ptr %10, i64 96
  store i64 0, ptr %22, align 8
  %.not = icmp eq i32 %.sroa.5.0.copyload, 0
  br i1 %.not, label %25, label %23

23:                                               ; preds = %1
  %24 = getelementptr inbounds nuw i8, ptr %10, i64 104
  store ptr %24, ptr %13, align 8
  tail call void @llvm.memcpy.p0.p0.i64(ptr nonnull align 4 %24, ptr nonnull align 4 %2, i64 %4, i1 false)
  br label %25

25:                                               ; preds = %23, %1
  %26 = icmp sgt i32 %.sroa.11.0.copyload, 0
  br i1 %26, label %27, label %31

27:                                               ; preds = %25
  %28 = getelementptr inbounds nuw i8, ptr %10, i64 104
  %29 = getelementptr inbounds nuw i32, ptr %28, i64 %3
  store ptr %29, ptr %15, align 8
  %30 = getelementptr inbounds nuw i32, ptr %2, i64 %3
  tail call void @llvm.memcpy.p0.p0.i64(ptr nonnull align 4 %29, ptr nonnull align 4 %30, i64 %7, i1 false)
  br label %31

31:                                               ; preds = %27, %25
  %32 = getelementptr inbounds nuw i8, ptr %10, i64 68
  store i32 0, ptr %32, align 4
  %33 = getelementptr inbounds nuw i8, ptr %10, i64 64
  store i32 0, ptr %33, align 8
  %34 = getelementptr inbounds nuw i8, ptr %10, i64 46
  store i8 1, ptr %34, align 2
  ret ptr %10
}